; Function Attrs: mustprogress uwtable
define internal noundef zeroext i1 @_ZZN28btSortedOverlappingPairCache19cleanProxyFromPairsEP17btBroadphaseProxyP12btDispatcherEN17CleanPairCallback14processOverlapER16btBroadphasePair(ptr nocapture noundef nonnull readonly align 8 dereferenceable(32) %this, ptr noundef nonnull align 8 dereferenceable(32) %pair) unnamed_addr #0 align 2 {
entry:
  %0 = load ptr, ptr %pair, align 8
  %m_cleanProxy = getelementptr inbounds i8, ptr %this, i64 8
  %1 = load ptr, ptr %m_cleanProxy, align 8
  %cmp = icmp eq ptr %0, %1
  %m_pProxy1 = getelementptr inbounds i8, ptr %pair, i64 8
  %2 = load ptr, ptr %m_pProxy1, align 8
  %cmp3 = icmp eq ptr %2, %1
  %or.cond = select i1 %cmp, i1 true, i1 %cmp3
  br i1 %or.cond, label %if.then, label %if.end

if.then:                                          ; preds = %entry
  %m_pairCache = getelementptr inbounds i8, ptr %this, i64 16
  %3 = load ptr, ptr %m_pairCache, align 8
  %m_dispatcher = getelementptr inbounds i8, ptr %this, i64 24
  %4 = load ptr, ptr %m_dispatcher, align 8
  %vtable = load ptr, ptr %3, align 8
  %vfn = getelementptr inbounds i8, ptr %vtable, i64 64
  %5 = load ptr, ptr %vfn, align 8
  tail call void %5(ptr noundef nonnull align 8 dereferenceable(8) %3, ptr noundef nonnull align 8 dereferenceable(32) %pair, ptr noundef %4)
  br label %if.end

if.end:                                           ; preds = %entry, %if.then
  ret i1 false
}